target datalayout = "e-m:e-p270:32:32-p271:32:32-p272:64:64-i64:64-i128:128-f80:128-n8:16:32:64-S128"
target triple = "x86_64-pc-linux-gnu"

@.str.40 = private unnamed_addr constant [5 x i8] c"true\00", align 1
@.str.41 = private unnamed_addr constant [6 x i8] c"false\00", align 1

; Function Attrs: nounwind uwtable
define internal ptr @buildDefItem(ptr noundef %0, ptr noundef %1, i1 noundef zeroext %2) #0 {
  %4 = alloca ptr, align 8
  %5 = alloca ptr, align 8
  %6 = alloca ptr, align 8
  %7 = alloca i8, align 1
  %8 = alloca i32, align 4
  %9 = alloca ptr, align 8
  %10 = alloca i32, align 4
  store ptr %0, ptr %5, align 8
  store ptr %1, ptr %6, align 8
  %11 = zext i1 %2 to i8
  store i8 %11, ptr %7, align 1
  %12 = load i8, ptr %7, align 1, !range !7, !noundef !8
  %13 = trunc i8 %12 to i1
  br i1 %13, label %79, label %14

14:                                               ; preds = %3
  %15 = load ptr, ptr %6, align 8
  %16 = getelementptr inbounds i8, ptr %15, i64 0
  %17 = load i8, ptr %16, align 1
  %18 = sext i8 %17 to i32
  %19 = icmp ne i32 %18, 0
  br i1 %19, label %20, label %79

20:                                               ; preds = %14
  call void @llvm.lifetime.start.p0(i64 4, ptr %8) #10
  call void @llvm.lifetime.start.p0(i64 8, ptr %9) #10
  %21 = call ptr @__errno_location() #13
  store i32 0, ptr %21, align 4
  %22 = load ptr, ptr %6, align 8
  %23 = call i32 @strtoint(ptr noundef %22, ptr noundef %9, i32 noundef 10)
  store i32 %23, ptr %8, align 4
  %24 = call ptr @__errno_location() #13
  %25 = load i32, ptr %24, align 4
  %26 = icmp eq i32 %25, 0
  br i1 %26, label %27, label %38

27:                                               ; preds = %20
  %28 = load ptr, ptr %9, align 8
  %29 = load i8, ptr %28, align 1
  %30 = sext i8 %29 to i32
  %31 = icmp eq i32 %30, 0
  br i1 %31, label %32, label %38

32:                                               ; preds = %27
  %33 = load ptr, ptr %5, align 8
  %34 = call ptr @pstrdup(ptr noundef %33)
  %35 = load i32, ptr %8, align 4
  %36 = call ptr @makeInteger(i32 noundef %35)
  %37 = call ptr @makeDefElem(ptr noundef %34, ptr noundef %36, i32 noundef -1)
  store ptr %37, ptr %4, align 8
  store i32 1, ptr %10, align 4
  br label %76

38:                                               ; preds = %27, %20
  %39 = call ptr @__errno_location() #13
  store i32 0, ptr %39, align 4
  %40 = load ptr, ptr %6, align 8
  %41 = call double @strtod(ptr noundef %40, ptr noundef %9) #10
  %42 = call ptr @__errno_location() #13
  %43 = load i32, ptr %42, align 4
  %44 = icmp eq i32 %43, 0
  br i1 %44, label %45, label %57

45:                                               ; preds = %38
  %46 = load ptr, ptr %9, align 8
  %47 = load i8, ptr %46, align 1
  %48 = sext i8 %47 to i32
  %49 = icmp eq i32 %48, 0
  br i1 %49, label %50, label %57

50:                                               ; preds = %45
  %51 = load ptr, ptr %5, align 8
  %52 = call ptr @pstrdup(ptr noundef %51)
  %53 = load ptr, ptr %6, align 8
  %54 = call ptr @pstrdup(ptr noundef %53)
  %55 = call ptr @makeFloat(ptr noundef %54)
  %56 = call ptr @makeDefElem(ptr noundef %52, ptr noundef %55, i32 noundef -1)
  store ptr %56, ptr %4, align 8
  store i32 1, ptr %10, align 4
  br label %76

57:                                               ; preds = %45, %38
  %58 = load ptr, ptr %6, align 8
  %59 = call i32 @strcmp(ptr noundef %58, ptr noundef @.str.40) #12
  %60 = icmp eq i32 %59, 0
  br i1 %60, label %61, label %66

61:                                               ; preds = %57
  %62 = load ptr, ptr %5, align 8
  %63 = call ptr @pstrdup(ptr noundef %62)
  %64 = call ptr @makeBoolean(i1 noundef zeroext true)
  %65 = call ptr @makeDefElem(ptr noundef %63, ptr noundef %64, i32 noundef -1)
  store ptr %65, ptr %4, align 8
  store i32 1, ptr %10, align 4
  br label %76

66:                                               ; preds = %57
  %67 = load ptr, ptr %6, align 8
  %68 = call i32 @strcmp(ptr noundef %67, ptr noundef @.str.41) #12
  %69 = icmp eq i32 %68, 0
  br i1 %69, label %70, label %75

70:                                               ; preds = %66
  %71 = load ptr, ptr %5, align 8
  %72 = call ptr @pstrdup(ptr noundef %71)
  %73 = call ptr @makeBoolean(i1 noundef zeroext false)
  %74 = call ptr @makeDefElem(ptr noundef %72, ptr noundef %73, i32 noundef -1)
  store ptr %74, ptr %4, align 8
  store i32 1, ptr %10, align 4
  br label %76

75:                                               ; preds = %66
  store i32 0, ptr %10, align 4
  br label %76

76:                                               ; preds = %75, %70, %61, %50, %32
  call void @llvm.lifetime.end.p0(i64 8, ptr %9) #10
  call void @llvm.lifetime.end.p0(i64 4, ptr %8) #10
  %77 = load i32, ptr %10, align 4
  switch i32 %77, label %88 [
    i32 0, label %78
    i32 1, label %86
  ]

78:                                               ; preds = %76
  br label %79

79:                                               ; preds = %78, %14, %3
  %80 = load ptr, ptr %5, align 8
  %81 = call ptr @pstrdup(ptr noundef %80)
  %82 = load ptr, ptr %6, align 8
  %83 = call ptr @pstrdup(ptr noundef %82)
  %84 = call ptr @makeString(ptr noundef %83)
  %85 = call ptr @makeDefElem(ptr noundef %81, ptr noundef %84, i32 noundef -1)
  store ptr %85, ptr %4, align 8
  br label %86

86:                                               ; preds = %79, %76
  %87 = load ptr, ptr %4, align 8
  ret ptr %87

88:                                               ; preds = %76
  unreachable
}