; Function Attrs: nounwind uwtable
define internal fastcc ptr @buildDefItem(ptr noundef %0, ptr noundef %1, i1 noundef zeroext %2) unnamed_addr #0 {
  %4 = alloca ptr, align 8
  br i1 %2, label %48, label %5

5:                                                ; preds = %3
  %6 = load i8, ptr %1, align 1
  %.not = icmp eq i8 %6, 0
  br i1 %.not, label %48, label %7

7:                                                ; preds = %5
  call void @llvm.lifetime.start.p0(i64 8, ptr nonnull %4) #10
  %8 = tail call ptr @__errno_location() #13
  store i32 0, ptr %8, align 4
  %9 = call i32 @strtoint(ptr noundef nonnull %1, ptr noundef nonnull %4, i32 noundef 10) #10
  %10 = load i32, ptr %8, align 4
  %11 = icmp eq i32 %10, 0
  br i1 %11, label %12, label %20

12:                                               ; preds = %7
  %13 = load ptr, ptr %4, align 8
  %14 = load i8, ptr %13, align 1
  %15 = icmp eq i8 %14, 0
  br i1 %15, label %16, label %20

16:                                               ; preds = %12
  %17 = call ptr @pstrdup(ptr noundef %0) #10
  %18 = call ptr @makeInteger(i32 noundef %9) #10
  %19 = call ptr @makeDefElem(ptr noundef %17, ptr noundef %18, i32 noundef -1) #10
  br label %.thread

20:                                               ; preds = %12, %7
  store i32 0, ptr %8, align 4
  %21 = call double @strtod(ptr noundef nonnull %1, ptr noundef nonnull %4) #10
  %22 = load i32, ptr %8, align 4
  %23 = icmp eq i32 %22, 0
  br i1 %23, label %24, label %33

24:                                               ; preds = %20
  %25 = load ptr, ptr %4, align 8
  %26 = load i8, ptr %25, align 1
  %27 = icmp eq i8 %26, 0
  br i1 %27, label %28, label %33

28:                                               ; preds = %24
  %29 = call ptr @pstrdup(ptr noundef %0) #10
  %30 = call ptr @pstrdup(ptr noundef nonnull %1) #10
  %31 = call ptr @makeFloat(ptr noundef %30) #10
  %32 = call ptr @makeDefElem(ptr noundef %29, ptr noundef %31, i32 noundef -1) #10
  br label %.thread

33:                                               ; preds = %24, %20
  %34 = call i32 @strcmp(ptr noundef nonnull dereferenceable(1) %1, ptr noundef nonnull dereferenceable(5) @.str.40) #12
  %35 = icmp eq i32 %34, 0
  br i1 %35, label %36, label %40

36:                                               ; preds = %33
  %37 = call ptr @pstrdup(ptr noundef %0) #10
  %38 = call ptr @makeBoolean(i1 noundef zeroext true) #10
  %39 = call ptr @makeDefElem(ptr noundef %37, ptr noundef %38, i32 noundef -1) #10
  br label %.thread

40:                                               ; preds = %33
  %41 = call i32 @strcmp(ptr noundef nonnull dereferenceable(1) %1, ptr noundef nonnull dereferenceable(6) @.str.41) #12
  %42 = icmp eq i32 %41, 0
  br i1 %42, label %43, label %47

43:                                               ; preds = %40
  %44 = call ptr @pstrdup(ptr noundef %0) #10
  %45 = call ptr @makeBoolean(i1 noundef zeroext false) #10
  %46 = call ptr @makeDefElem(ptr noundef %44, ptr noundef %45, i32 noundef -1) #10
  br label %.thread

.thread:                                          ; preds = %16, %28, %36, %43
  %.015.ph = phi ptr [ %46, %43 ], [ %39, %36 ], [ %32, %28 ], [ %19, %16 ]
  call void @llvm.lifetime.end.p0(i64 8, ptr nonnull %4) #10
  br label %53

47:                                               ; preds = %40
  call void @llvm.lifetime.end.p0(i64 8, ptr nonnull %4) #10
  br label %48

48:                                               ; preds = %47, %5, %3
  %49 = call ptr @pstrdup(ptr noundef %0) #10
  %50 = call ptr @pstrdup(ptr noundef %1) #10
  %51 = call ptr @makeString(ptr noundef %50) #10
  %52 = call ptr @makeDefElem(ptr noundef %49, ptr noundef %51, i32 noundef -1) #10
  br label %53

53:                                               ; preds = %.thread, %48
  %.1 = phi ptr [ %52, %48 ], [ %.015.ph, %.thread ]
  ret ptr %.1
}